; Function Attrs: mustprogress uwtable
define noundef ptr @Z3_simplify_ex(ptr noundef %c, ptr noundef %_a, ptr noundef %p) local_unnamed_addr #3 personality ptr @__gxx_personality_v0 {
entry:
  %0 = atomicrmw xchg ptr @g_z3_log_enabled, i8 0 seq_cst, align 1
  %1 = and i8 %0, 1
  %tobool.i.not = icmp eq i8 %1, 0
  br i1 %tobool.i.not, label %do.body, label %if.then

if.then:                                          ; preds = %entry
  invoke void @_Z18log_Z3_simplify_exP11_Z3_contextP7_Z3_astP10_Z3_params(ptr noundef %c, ptr noundef %_a, ptr noundef %p)
          to label %do.body unwind label %lpad.thread

lpad.thread:                                      ; preds = %if.then6, %if.then
  %lpad.thr_comm12 = landingpad { ptr, i32 }
          cleanup
  br label %if.then.i

lpad:                                             ; preds = %do.body
  %lpad.thr_comm.split-lp13 = landingpad { ptr, i32 }
          cleanup
  br i1 %tobool.i.not, label %_ZN10z3_log_ctxD2Ev.exit, label %if.then.i

if.then.i:                                        ; preds = %lpad.thread, %lpad
  %lpad.phi16 = phi { ptr, i32 } [ %lpad.thr_comm12, %lpad.thread ], [ %lpad.thr_comm.split-lp13, %lpad ]
  store atomic i8 1, ptr @g_z3_log_enabled seq_cst, align 1
  br label %_ZN10z3_log_ctxD2Ev.exit

_ZN10z3_log_ctxD2Ev.exit:                         ; preds = %lpad, %if.then.i
  %lpad.phi17 = phi { ptr, i32 } [ %lpad.thr_comm.split-lp13, %lpad ], [ %lpad.phi16, %if.then.i ]
  resume { ptr, i32 } %lpad.phi17

do.body:                                          ; preds = %entry, %if.then
  %call3 = invoke fastcc noundef ptr @_ZL8simplifyP11_Z3_contextP7_Z3_astP10_Z3_params(ptr noundef %c, ptr noundef %_a, ptr noundef %p)
          to label %invoke.cont2 unwind label %lpad

invoke.cont2:                                     ; preds = %do.body
  br i1 %tobool.i.not, label %_ZN10z3_log_ctxD2Ev.exit8, label %if.then6

if.then6:                                         ; preds = %invoke.cont2
  invoke void @_Z4SetRPv(ptr noundef %call3)
          to label %if.then.i7 unwind label %lpad.thread

if.then.i7:                                       ; preds = %if.then6
  store atomic i8 1, ptr @g_z3_log_enabled seq_cst, align 1
  br label %_ZN10z3_log_ctxD2Ev.exit8

_ZN10z3_log_ctxD2Ev.exit8:                        ; preds = %invoke.cont2, %if.then.i7
  ret ptr %call3
}